; Function Attrs: mustprogress uwtable
define void @_ZN14AtomPropertiesC2Ev(ptr nocapture noundef nonnull writeonly align 8 dereferenceable(8) %0) unnamed_addr #0 align 2 personality ptr @__gxx_personality_v0 {
  %2 = tail call noalias noundef nonnull dereferenceable(424) ptr @_Znwm(i64 noundef 424) #17
  invoke void @_ZN14AtomProperties4ImplC2Ev(ptr noundef nonnull align 8 dereferenceable(424) %2)
          to label %3 unwind label %4

3:                                                ; preds = %1
  store ptr %2, ptr %0, align 8
  ret void

4:                                                ; preds = %1
  %5 = landingpad { ptr, i32 }
          cleanup
  tail call void @_ZdlPv(ptr noundef nonnull %2) #18
  resume { ptr, i32 } %5
}